; Function Attrs: nounwind uwtable
define hidden void @imageio_term_source(ptr noundef %0) #1 {
  %2 = getelementptr inbounds i8, ptr %0, i64 40
  %3 = load ptr, ptr %2, align 8
  %4 = getelementptr inbounds i8, ptr %0, i64 24
  %5 = load ptr, ptr %4, align 8
  %6 = load ptr, ptr @the_jvm, align 8
  %7 = tail call ptr @JNU_GetEnv(ptr noundef %6, i32 noundef 65538) #13
  %8 = getelementptr inbounds i8, ptr %3, i64 8
  %9 = load i64, ptr %8, align 8
  %.not = icmp eq i64 %9, 0
  br i1 %.not, label %86, label %10

10:                                               ; preds = %1
  %11 = getelementptr inbounds i8, ptr %5, i64 8
  %12 = load ptr, ptr %11, align 8
  %13 = getelementptr inbounds i8, ptr %5, i64 32
  %14 = load ptr, ptr %13, align 8
  %.not.i.i = icmp eq ptr %14, null
  br i1 %.not.i.i, label %unpinStreamBuffer.exit.i, label %15

15:                                               ; preds = %10
  %16 = load ptr, ptr %3, align 8
  %17 = icmp eq ptr %16, null
  %18 = ptrtoint ptr %16 to i64
  %19 = ptrtoint ptr %14 to i64
  %20 = sub i64 %18, %19
  %.sink.i.i = select i1 %17, i64 -1, i64 %20
  %21 = getelementptr inbounds i8, ptr %5, i64 40
  store i64 %.sink.i.i, ptr %21, align 8
  %22 = load ptr, ptr %7, align 8
  %23 = getelementptr inbounds i8, ptr %22, i64 1784
  %24 = load ptr, ptr %23, align 8
  %25 = getelementptr inbounds i8, ptr %5, i64 24
  %26 = load ptr, ptr %25, align 8
  tail call void %24(ptr noundef nonnull %7, ptr noundef %26, ptr noundef nonnull %14, i32 noundef 0) #13
  store ptr null, ptr %13, align 8
  br label %unpinStreamBuffer.exit.i

unpinStreamBuffer.exit.i:                         ; preds = %15, %10
  %27 = getelementptr inbounds i8, ptr %5, i64 88
  %28 = load ptr, ptr %27, align 8
  %.not.i5.i = icmp eq ptr %28, null
  br i1 %.not.i5.i, label %RELEASE_ARRAYS.exit, label %29

29:                                               ; preds = %unpinStreamBuffer.exit.i
  %30 = getelementptr inbounds i8, ptr %5, i64 72
  %31 = load ptr, ptr %7, align 8
  %32 = getelementptr inbounds i8, ptr %31, i64 1784
  %33 = load ptr, ptr %32, align 8
  %34 = load ptr, ptr %30, align 8
  tail call void %33(ptr noundef nonnull %7, ptr noundef %34, ptr noundef nonnull %28, i32 noundef 0) #13
  store ptr null, ptr %27, align 8
  br label %RELEASE_ARRAYS.exit

RELEASE_ARRAYS.exit:                              ; preds = %unpinStreamBuffer.exit.i, %29
  %35 = load ptr, ptr %7, align 8
  %36 = getelementptr inbounds i8, ptr %35, i64 488
  %37 = load ptr, ptr %36, align 8
  %38 = load ptr, ptr @JPEGImageReader_pushBackID, align 8
  %39 = load i64, ptr %8, align 8
  tail call void (ptr, ptr, ptr, ...) %37(ptr noundef nonnull %7, ptr noundef %12, ptr noundef %38, i64 noundef %39) #13
  %40 = load ptr, ptr %7, align 8
  %41 = getelementptr inbounds i8, ptr %40, i64 120
  %42 = load ptr, ptr %41, align 8
  %43 = tail call ptr %42(ptr noundef nonnull %7) #13
  %.not19 = icmp eq ptr %43, null
  br i1 %.not19, label %44, label %GET_ARRAYS.exit.thread

44:                                               ; preds = %RELEASE_ARRAYS.exit
  %45 = getelementptr inbounds i8, ptr %5, i64 24
  %46 = load ptr, ptr %45, align 8
  %.not.i.i21 = icmp eq ptr %46, null
  br i1 %.not.i.i21, label %58, label %47

47:                                               ; preds = %44
  %48 = load ptr, ptr %7, align 8
  %49 = getelementptr inbounds i8, ptr %48, i64 1776
  %50 = load ptr, ptr %49, align 8
  %51 = tail call ptr %50(ptr noundef nonnull %7, ptr noundef nonnull %46, ptr noundef null) #13
  store ptr %51, ptr %13, align 8
  %52 = icmp eq ptr %51, null
  br i1 %52, label %GET_ARRAYS.exit.thread, label %53

53:                                               ; preds = %47
  %54 = getelementptr inbounds i8, ptr %5, i64 40
  %55 = load i64, ptr %54, align 8
  %.not13.i.i = icmp eq i64 %55, -1
  br i1 %.not13.i.i, label %58, label %56

56:                                               ; preds = %53
  %57 = getelementptr inbounds i8, ptr %51, i64 %55
  store ptr %57, ptr %3, align 8
  br label %58

58:                                               ; preds = %56, %53, %44
  %59 = getelementptr inbounds i8, ptr %5, i64 72
  %60 = load ptr, ptr %59, align 8
  %.not.i8.i = icmp eq ptr %60, null
  br i1 %.not.i8.i, label %GET_ARRAYS.exit, label %61

61:                                               ; preds = %58
  %62 = load ptr, ptr %7, align 8
  %63 = getelementptr inbounds i8, ptr %62, i64 1776
  %64 = load ptr, ptr %63, align 8
  %65 = tail call ptr %64(ptr noundef nonnull %7, ptr noundef nonnull %60, ptr noundef null) #13
  store ptr %65, ptr %27, align 8
  %66 = icmp eq ptr %65, null
  br i1 %66, label %67, label %GET_ARRAYS.exit

67:                                               ; preds = %61
  %68 = load ptr, ptr %13, align 8
  %.not.i.i.i = icmp eq ptr %68, null
  br i1 %.not.i.i.i, label %GET_ARRAYS.exit.thread, label %unpinStreamBuffer.exit.i.i

unpinStreamBuffer.exit.i.i:                       ; preds = %67
  %69 = load ptr, ptr %3, align 8
  %70 = icmp eq ptr %69, null
  %71 = ptrtoint ptr %69 to i64
  %72 = ptrtoint ptr %68 to i64
  %73 = sub i64 %71, %72
  %.sink.i.i.i = select i1 %70, i64 -1, i64 %73
  %74 = getelementptr inbounds i8, ptr %5, i64 40
  store i64 %.sink.i.i.i, ptr %74, align 8
  %75 = load ptr, ptr %7, align 8
  %76 = getelementptr inbounds i8, ptr %75, i64 1784
  %77 = load ptr, ptr %76, align 8
  %78 = load ptr, ptr %45, align 8
  tail call void %77(ptr noundef nonnull %7, ptr noundef %78, ptr noundef nonnull %68, i32 noundef 0) #13
  store ptr null, ptr %13, align 8
  %.pre.i = load ptr, ptr %27, align 8
  %.not.i5.i.i = icmp eq ptr %.pre.i, null
  br i1 %.not.i5.i.i, label %GET_ARRAYS.exit.thread, label %79

79:                                               ; preds = %unpinStreamBuffer.exit.i.i
  %80 = load ptr, ptr %7, align 8
  %81 = getelementptr inbounds i8, ptr %80, i64 1784
  %82 = load ptr, ptr %81, align 8
  %83 = load ptr, ptr %59, align 8
  tail call void %82(ptr noundef nonnull %7, ptr noundef %83, ptr noundef nonnull %.pre.i, i32 noundef 0) #13
  store ptr null, ptr %27, align 8
  br label %GET_ARRAYS.exit.thread

GET_ARRAYS.exit.thread:                           ; preds = %67, %79, %unpinStreamBuffer.exit.i.i, %47, %RELEASE_ARRAYS.exit
  %84 = load ptr, ptr %0, align 8
  %85 = load ptr, ptr %84, align 8
  tail call void %85(ptr noundef nonnull %0) #13
  br label %GET_ARRAYS.exit

GET_ARRAYS.exit:                                  ; preds = %61, %58, %GET_ARRAYS.exit.thread
  store i64 0, ptr %8, align 8
  br label %86

86:                                               ; preds = %GET_ARRAYS.exit, %1
  ret void
}